; ModuleID = '40/408.c'
source_filename = "40/408.c"
target datalayout = "e-m:e-p270:32:32-p271:32:32-p272:64:64-i64:64-f80:128-n8:16:32:64-S128"
target triple = "x86_64-pc-linux-gnu"

@.str = private unnamed_addr constant [4 x i8] c"%f\0A\00", align 1
@.str.1 = private unnamed_addr constant [3 x i8] c"%f\00", align 1
@.str.2 = private unnamed_addr constant [5 x i8] c"%.4f\00", align 1
@.str.3 = private unnamed_addr constant [15 x i8] c"Invalid input\0A\00", align 1

; Function Attrs: noinline nounwind uwtable
define dso_local void @main() #0 {
  %1 = alloca float, align 4
  %2 = alloca float, align 4
  %3 = alloca float, align 4
  %4 = alloca float, align 4
  %5 = alloca float, align 4
  %6 = alloca float, align 4
  %7 = alloca float, align 4
  %8 = alloca float, align 4
  %9 = call i32 (i8*, ...) @__isoc99_scanf(i8* getelementptr inbounds ([4 x i8], [4 x i8]* @.str, i64 0, i64 0), float* %1)
  %10 = call i32 (i8*, ...) @__isoc99_scanf(i8* getelementptr inbounds ([4 x i8], [4 x i8]* @.str, i64 0, i64 0), float* %2)
  %11 = call i32 (i8*, ...) @__isoc99_scanf(i8* getelementptr inbounds ([4 x i8], [4 x i8]* @.str, i64 0, i64 0), float* %3)
  %12 = call i32 (i8*, ...) @__isoc99_scanf(i8* getelementptr inbounds ([4 x i8], [4 x i8]* @.str, i64 0, i64 0), float* %4)
  %13 = call i32 (i8*, ...) @__isoc99_scanf(i8* getelementptr inbounds ([3 x i8], [3 x i8]* @.str.1, i64 0, i64 0), float* %5)
  %14 = load float, float* %5, align 4
  %15 = fmul float %14, 1.000000e+02
  %16 = fdiv float %15, 3.600000e+02
  store float %16, float* %7, align 4
  %17 = load float, float* %1, align 4
  %18 = load float, float* %2, align 4
  %19 = fadd float %17, %18
  %20 = load float, float* %3, align 4
  %21 = fadd float %19, %20
  %22 = load float, float* %4, align 4
  %23 = fadd float %21, %22
  %24 = fdiv float %23, 2.000000e+00
  store float %24, float* %8, align 4
  %25 = load float, float* %8, align 4
  %26 = load float, float* %1, align 4
  %27 = fsub float %25, %26
  %28 = load float, float* %8, align 4
  %29 = load float, float* %2, align 4
  %30 = fsub float %28, %29
  %31 = fmul float %27, %30
  %32 = load float, float* %8, align 4
  %33 = load float, float* %3, align 4
  %34 = fsub float %32, %33
  %35 = fmul float %31, %34
  %36 = load float, float* %8, align 4
  %37 = load float, float* %4, align 4
  %38 = fsub float %36, %37
  %39 = fmul float %35, %38
  %40 = fpext float %39 to double
  %41 = load float, float* %1, align 4
  %42 = load float, float* %2, align 4
  %43 = fmul float %41, %42
  %44 = load float, float* %3, align 4
  %45 = fmul float %43, %44
  %46 = load float, float* %4, align 4
  %47 = fmul float %45, %46
  %48 = fpext float %47 to double
  %49 = load float, float* %7, align 4
  %50 = fpext float %49 to double
  %51 = call double @cos(double %50) #3
  %52 = fmul double %48, %51
  %53 = load float, float* %7, align 4
  %54 = fpext float %53 to double
  %55 = call double @cos(double %54) #3
  %56 = fmul double %52, %55
  %57 = fsub double %40, %56
  %58 = call double @sqrt(double %57) #3
  %59 = fcmp oge double %58, 0.000000e+00
  br i1 %59, label %60, label %99

60:                                               ; preds = %0
  %61 = load float, float* %8, align 4
  %62 = load float, float* %1, align 4
  %63 = fsub float %61, %62
  %64 = load float, float* %8, align 4
  %65 = load float, float* %2, align 4
  %66 = fsub float %64, %65
  %67 = fmul float %63, %66
  %68 = load float, float* %8, align 4
  %69 = load float, float* %3, align 4
  %70 = fsub float %68, %69
  %71 = fmul float %67, %70
  %72 = load float, float* %8, align 4
  %73 = load float, float* %4, align 4
  %74 = fsub float %72, %73
  %75 = fmul float %71, %74
  %76 = fpext float %75 to double
  %77 = load float, float* %1, align 4
  %78 = load float, float* %2, align 4
  %79 = fmul float %77, %78
  %80 = load float, float* %3, align 4
  %81 = fmul float %79, %80
  %82 = load float, float* %4, align 4
  %83 = fmul float %81, %82
  %84 = fpext float %83 to double
  %85 = load float, float* %7, align 4
  %86 = fpext float %85 to double
  %87 = call double @cos(double %86) #3
  %88 = fmul double %84, %87
  %89 = load float, float* %7, align 4
  %90 = fpext float %89 to double
  %91 = call double @cos(double %90) #3
  %92 = fmul double %88, %91
  %93 = fsub double %76, %92
  %94 = call double @sqrt(double %93) #3
  %95 = fptrunc double %94 to float
  store float %95, float* %6, align 4
  %96 = load float, float* %6, align 4
  %97 = fpext float %96 to double
  %98 = call i32 (i8*, ...) @printf(i8* getelementptr inbounds ([5 x i8], [5 x i8]* @.str.2, i64 0, i64 0), double %97)
  br label %101

99:                                               ; preds = %0
  %100 = call i32 (i8*, ...) @printf(i8* getelementptr inbounds ([15 x i8], [15 x i8]* @.str.3, i64 0, i64 0))
  br label %101

101:                                              ; preds = %99, %60
  ret void
}

declare dso_local i32 @__isoc99_scanf(i8*, ...) #1

; Function Attrs: nounwind
declare dso_local double @sqrt(double) #2

; Function Attrs: nounwind
declare dso_local double @cos(double) #2

declare dso_local i32 @printf(i8*, ...) #1


!llvm.module.flags = !{!0}
!llvm.ident = !{!1}

!0 = !{i32 1, !"wchar_size", i32 4}
!1 = !{!"clang version 10.0.0-4ubuntu1 "}
