; ModuleID = 'source-C-CXX/39/408.c'
source_filename = "source-C-CXX/39/408.c"
target datalayout = "e-m:e-p270:32:32-p271:32:32-p272:64:64-i64:64-f80:128-n8:16:32:64-S128"
target triple = "x86_64-pc-linux-gnu"

@.str = private unnamed_addr constant [4 x i8] c"%f\0A\00", align 1
@.str.1 = private unnamed_addr constant [3 x i8] c"%f\00", align 1
@.str.2 = private unnamed_addr constant [5 x i8] c"%.4f\00", align 1
@str = private unnamed_addr constant [14 x i8] c"Invalid input\00", align 1

; Function Attrs: nofree nounwind sspstrong uwtable
define dso_local void @main() local_unnamed_addr #0 {
  %1 = alloca float, align 4
  %2 = alloca float, align 4
  %3 = alloca float, align 4
  %4 = alloca float, align 4
  %5 = alloca float, align 4
  %6 = bitcast float* %1 to i8*
  call void @llvm.lifetime.start.p0i8(i64 4, i8* nonnull %6) #5
  %7 = bitcast float* %2 to i8*
  call void @llvm.lifetime.start.p0i8(i64 4, i8* nonnull %7) #5
  %8 = bitcast float* %3 to i8*
  call void @llvm.lifetime.start.p0i8(i64 4, i8* nonnull %8) #5
  %9 = bitcast float* %4 to i8*
  call void @llvm.lifetime.start.p0i8(i64 4, i8* nonnull %9) #5
  %10 = bitcast float* %5 to i8*
  call void @llvm.lifetime.start.p0i8(i64 4, i8* nonnull %10) #5
  %11 = call i32 (i8*, ...) @__isoc99_scanf(i8* getelementptr inbounds ([4 x i8], [4 x i8]* @.str, i64 0, i64 0), float* nonnull %1)
  %12 = call i32 (i8*, ...) @__isoc99_scanf(i8* getelementptr inbounds ([4 x i8], [4 x i8]* @.str, i64 0, i64 0), float* nonnull %2)
  %13 = call i32 (i8*, ...) @__isoc99_scanf(i8* getelementptr inbounds ([4 x i8], [4 x i8]* @.str, i64 0, i64 0), float* nonnull %3)
  %14 = call i32 (i8*, ...) @__isoc99_scanf(i8* getelementptr inbounds ([4 x i8], [4 x i8]* @.str, i64 0, i64 0), float* nonnull %4)
  %15 = call i32 (i8*, ...) @__isoc99_scanf(i8* getelementptr inbounds ([3 x i8], [3 x i8]* @.str.1, i64 0, i64 0), float* nonnull %5)
  %16 = load float, float* %5, align 4, !tbaa !5
  %17 = fmul float %16, 1.000000e+02
  %18 = fdiv float %17, 3.600000e+02
  %19 = load float, float* %1, align 4, !tbaa !5
  %20 = load float, float* %2, align 4, !tbaa !5
  %21 = fadd float %19, %20
  %22 = load float, float* %3, align 4, !tbaa !5
  %23 = fadd float %21, %22
  %24 = load float, float* %4, align 4, !tbaa !5
  %25 = fadd float %23, %24
  %26 = fmul float %25, 5.000000e-01
  %27 = fsub float %26, %19
  %28 = fsub float %26, %20
  %29 = fmul float %27, %28
  %30 = fsub float %26, %22
  %31 = fmul float %30, %29
  %32 = fsub float %26, %24
  %33 = fmul float %32, %31
  %34 = fpext float %33 to double
  %35 = fmul float %19, %20
  %36 = fmul float %35, %22
  %37 = fmul float %36, %24
  %38 = fpext float %37 to double
  %39 = fpext float %18 to double
  %40 = call double @cos(double %39) #5
  %41 = fmul double %40, %38
  %42 = call double @cos(double %39) #5
  %43 = fmul double %42, %41
  %44 = fsub double %34, %43
  %45 = call double @sqrt(double %44) #5
  %46 = fcmp ult double %45, 0.000000e+00
  br i1 %46, label %73, label %47

47:                                               ; preds = %0
  %48 = load float, float* %1, align 4, !tbaa !5
  %49 = fsub float %26, %48
  %50 = load float, float* %2, align 4, !tbaa !5
  %51 = fsub float %26, %50
  %52 = fmul float %49, %51
  %53 = load float, float* %3, align 4, !tbaa !5
  %54 = fsub float %26, %53
  %55 = fmul float %52, %54
  %56 = load float, float* %4, align 4, !tbaa !5
  %57 = fsub float %26, %56
  %58 = fmul float %55, %57
  %59 = fpext float %58 to double
  %60 = fmul float %48, %50
  %61 = fmul float %60, %53
  %62 = fmul float %61, %56
  %63 = fpext float %62 to double
  %64 = call double @cos(double %39) #5
  %65 = fmul double %64, %63
  %66 = call double @cos(double %39) #5
  %67 = fmul double %66, %65
  %68 = fsub double %59, %67
  %69 = call double @sqrt(double %68) #5
  %70 = fptrunc double %69 to float
  %71 = fpext float %70 to double
  %72 = call i32 (i8*, ...) @printf(i8* nonnull dereferenceable(1) getelementptr inbounds ([5 x i8], [5 x i8]* @.str.2, i64 0, i64 0), double %71)
  br label %75

73:                                               ; preds = %0
  %74 = call i32 @puts(i8* nonnull dereferenceable(1) getelementptr inbounds ([14 x i8], [14 x i8]* @str, i64 0, i64 0))
  br label %75

75:                                               ; preds = %73, %47
  call void @llvm.lifetime.end.p0i8(i64 4, i8* nonnull %10) #5
  call void @llvm.lifetime.end.p0i8(i64 4, i8* nonnull %9) #5
  call void @llvm.lifetime.end.p0i8(i64 4, i8* nonnull %8) #5
  call void @llvm.lifetime.end.p0i8(i64 4, i8* nonnull %7) #5
  call void @llvm.lifetime.end.p0i8(i64 4, i8* nonnull %6) #5
  ret void
}

; Function Attrs: argmemonly mustprogress nofree nosync nounwind willreturn
declare void @llvm.lifetime.start.p0i8(i64 immarg, i8* nocapture) #1

; Function Attrs: nofree nounwind
declare noundef i32 @__isoc99_scanf(i8* nocapture noundef readonly, ...) local_unnamed_addr #2

; Function Attrs: mustprogress nofree nounwind willreturn
declare double @sqrt(double) local_unnamed_addr #3

; Function Attrs: mustprogress nofree nounwind willreturn
declare double @cos(double) local_unnamed_addr #3

; Function Attrs: nofree nounwind
declare noundef i32 @printf(i8* nocapture noundef readonly, ...) local_unnamed_addr #2

; Function Attrs: argmemonly mustprogress nofree nosync nounwind willreturn
declare void @llvm.lifetime.end.p0i8(i64 immarg, i8* nocapture) #1

; Function Attrs: nofree nounwind
declare noundef i32 @puts(i8* nocapture noundef readonly) local_unnamed_addr #4


!llvm.module.flags = !{!0, !1, !2, !3}
!llvm.ident = !{!4}

!0 = !{i32 1, !"wchar_size", i32 4}
!1 = !{i32 7, !"PIC Level", i32 2}
!2 = !{i32 7, !"PIE Level", i32 2}
!3 = !{i32 7, !"uwtable", i32 1}
!4 = !{!"clang version 13.0.0"}
!5 = !{!6, !6, i64 0}
!6 = !{!"float", !7, i64 0}
!7 = !{!"omnipotent char", !8, i64 0}
!8 = !{!"Simple C/C++ TBAA"}
